target datalayout = "e-m:e-p270:32:32-p271:32:32-p272:64:64-i64:64-i128:128-f80:128-n8:16:32:64-S128"
target triple = "x86_64-pc-linux-gnu"

%struct.sheng = type { [256 x <2 x i64>], i32, i32, i32, i32, i8, i8, i8, i8, i32 }
%struct.sstate_aux = type { i32, i32, i32, i32 }
%struct.mq = type { ptr, i32, i32, ptr, ptr, i64, ptr, i64, ptr, i64, ptr, i8, ptr, ptr, [10 x %struct.mq_item] }
%struct.mq_item = type { i32, i64, i64 }

; Function Attrs: alwaysinline nounwind uwtable
define internal ptr @get_aux(ptr noundef %0, i8 noundef zeroext %1) #2 {
  %3 = alloca ptr, align 8
  %4 = alloca i8, align 1
  %5 = alloca i32, align 4
  store ptr %0, ptr %3, align 8
  store i8 %1, ptr %4, align 1
  call void @llvm.lifetime.start.p0(i64 4, ptr %5) #7
  %6 = load ptr, ptr %3, align 8
  %7 = getelementptr inbounds nuw %struct.sheng, ptr %6, i32 0, i32 2
  %8 = load i32, ptr %7, align 4
  %9 = zext i32 %8 to i64
  %10 = sub i64 %9, 64
  %11 = load i8, ptr %4, align 1
  %12 = zext i8 %11 to i32
  %13 = and i32 %12, 15
  %14 = sext i32 %13 to i64
  %15 = mul i64 %14, 16
  %16 = add i64 %10, %15
  %17 = trunc i64 %16 to i32
  store i32 %17, ptr %5, align 4
  br label %18

18:                                               ; preds = %2
  br label %19

19:                                               ; preds = %18
  br label %20

20:                                               ; preds = %19
  %21 = load ptr, ptr %3, align 8
  %22 = load i32, ptr %5, align 4
  %23 = zext i32 %22 to i64
  %24 = getelementptr inbounds nuw i8, ptr %21, i64 %23
  call void @llvm.lifetime.end.p0(i64 4, ptr %5) #7
  ret ptr %24
}

; Function Attrs: alwaysinline nounwind uwtable
define internal ptr @get_sheng(ptr noundef %0) #2 {
  %2 = alloca ptr, align 8
  store ptr %0, ptr %2, align 8
  %3 = load ptr, ptr %2, align 8
  %4 = getelementptr inbounds nuw i8, ptr %3, i64 64
  ret ptr %4
}

; Function Attrs: nounwind uwtable
define hidden signext i8 @nfaExecSheng_inAnyAccept(ptr noundef %0, ptr noundef %1) #0 {
  %3 = alloca ptr, align 8
  %4 = alloca ptr, align 8
  %5 = alloca ptr, align 8
  %6 = alloca i8, align 1
  %7 = alloca ptr, align 8
  store ptr %0, ptr %3, align 8
  store ptr %1, ptr %4, align 8
  call void @llvm.lifetime.start.p0(i64 8, ptr %5) #7
  %8 = load ptr, ptr %3, align 8
  %9 = call ptr @get_sheng(ptr noundef %8)
  store ptr %9, ptr %5, align 8
  call void @llvm.lifetime.start.p0(i64 1, ptr %6) #7
  %10 = load ptr, ptr %4, align 8
  %11 = getelementptr inbounds nuw %struct.mq, ptr %10, i32 0, i32 3
  %12 = load ptr, ptr %11, align 8
  %13 = load i8, ptr %12, align 1
  store i8 %13, ptr %6, align 1
  br label %14

14:                                               ; preds = %2
  br label %15

15:                                               ; preds = %14
  br label %16

16:                                               ; preds = %15
  call void @llvm.lifetime.start.p0(i64 8, ptr %7) #7
  %17 = load ptr, ptr %5, align 8
  %18 = load i8, ptr %6, align 1
  %19 = call ptr @get_aux(ptr noundef %17, i8 noundef zeroext %18)
  store ptr %19, ptr %7, align 8
  %20 = load ptr, ptr %7, align 8
  %21 = getelementptr inbounds nuw %struct.sstate_aux, ptr %20, i32 0, i32 0
  %22 = load i32, ptr %21, align 4
  %23 = icmp ne i32 %22, 0
  %24 = xor i1 %23, true
  %25 = xor i1 %24, true
  %26 = zext i1 %25 to i32
  %27 = trunc i32 %26 to i8
  call void @llvm.lifetime.end.p0(i64 8, ptr %7) #7
  call void @llvm.lifetime.end.p0(i64 1, ptr %6) #7
  call void @llvm.lifetime.end.p0(i64 8, ptr %5) #7
  ret i8 %27
}