; Function Attrs: mustprogress nofree norecurse nosync nounwind willreturn memory(read, inaccessiblemem: none) uwtable
define hidden signext range(i8 0, 2) i8 @nfaExecSheng_inAnyAccept(ptr noundef readonly captures(none) %0, ptr noundef readonly captures(none) %1) local_unnamed_addr #4 {
  %3 = getelementptr inbounds nuw i8, ptr %0, i64 64
  %4 = getelementptr inbounds nuw i8, ptr %1, i64 16
  %5 = load ptr, ptr %4, align 8
  %6 = load i8, ptr %5, align 1
  %7 = getelementptr inbounds nuw i8, ptr %0, i64 4164
  %8 = load i32, ptr %7, align 4
  %9 = add i32 %8, -64
  %10 = shl i8 %6, 4
  %11 = zext i8 %10 to i32
  %12 = add i32 %9, %11
  %13 = zext i32 %12 to i64
  %14 = getelementptr inbounds nuw i8, ptr %3, i64 %13
  %15 = load i32, ptr %14, align 4
  %16 = icmp ne i32 %15, 0
  %17 = zext i1 %16 to i8
  ret i8 %17
}